target datalayout = "e-m:e-p270:32:32-p271:32:32-p272:64:64-i64:64-i128:128-f80:128-n8:16:32:64-S128"
target triple = "x86_64-unknown-linux-gnu"

%"struct.OpenColorIO_v2_4dev::CDLOpData::ChannelParams" = type { [3 x double] }
%"class.std::__cxx11::basic_string" = type { %"struct.std::__cxx11::basic_string<char>::_Alloc_hider", i64, %union.anon.0 }
%"struct.std::__cxx11::basic_string<char>::_Alloc_hider" = type { ptr }
%union.anon.0 = type { i64, [8 x i8] }
%"class.OpenColorIO_v2_4dev::CDLOpData" = type { %"class.OpenColorIO_v2_4dev::OpData", i32, %"struct.OpenColorIO_v2_4dev::CDLOpData::ChannelParams", %"struct.OpenColorIO_v2_4dev::CDLOpData::ChannelParams", %"struct.OpenColorIO_v2_4dev::CDLOpData::ChannelParams", double }
%"class.OpenColorIO_v2_4dev::OpData" = type { ptr, %"class.std::mutex", %"class.OpenColorIO_v2_4dev::FormatMetadataImpl" }
%"class.std::mutex" = type { %"class.std::__mutex_base" }
%"class.std::__mutex_base" = type { %union.pthread_mutex_t }
%union.pthread_mutex_t = type { %struct.__pthread_mutex_s }
%struct.__pthread_mutex_s = type { i32, i32, i32, i32, i32, i16, i16, %struct.__pthread_internal_list }
%struct.__pthread_internal_list = type { ptr, ptr }
%"class.OpenColorIO_v2_4dev::FormatMetadataImpl" = type { %"class.OpenColorIO_v2_4dev::FormatMetadata", %"class.std::__cxx11::basic_string", %"class.std::__cxx11::basic_string", %"class.std::vector", %"class.std::vector.4" }
%"class.OpenColorIO_v2_4dev::FormatMetadata" = type { ptr }
%"class.std::vector" = type { %"struct.std::_Vector_base" }
%"struct.std::_Vector_base" = type { %"struct.std::_Vector_base<std::pair<std::__cxx11::basic_string<char>, std::__cxx11::basic_string<char>>, std::allocator<std::pair<std::__cxx11::basic_string<char>, std::__cxx11::basic_string<char>>>>::_Vector_impl" }
%"struct.std::_Vector_base<std::pair<std::__cxx11::basic_string<char>, std::__cxx11::basic_string<char>>, std::allocator<std::pair<std::__cxx11::basic_string<char>, std::__cxx11::basic_string<char>>>>::_Vector_impl" = type { %"struct.std::_Vector_base<std::pair<std::__cxx11::basic_string<char>, std::__cxx11::basic_string<char>>, std::allocator<std::pair<std::__cxx11::basic_string<char>, std::__cxx11::basic_string<char>>>>::_Vector_impl_data" }
%"struct.std::_Vector_base<std::pair<std::__cxx11::basic_string<char>, std::__cxx11::basic_string<char>>, std::allocator<std::pair<std::__cxx11::basic_string<char>, std::__cxx11::basic_string<char>>>>::_Vector_impl_data" = type { ptr, ptr, ptr }
%"class.std::vector.4" = type { %"struct.std::_Vector_base.5" }
%"struct.std::_Vector_base.5" = type { %"struct.std::_Vector_base<OpenColorIO_v2_4dev::FormatMetadataImpl, std::allocator<OpenColorIO_v2_4dev::FormatMetadataImpl>>::_Vector_impl" }
%"struct.std::_Vector_base<OpenColorIO_v2_4dev::FormatMetadataImpl, std::allocator<OpenColorIO_v2_4dev::FormatMetadataImpl>>::_Vector_impl" = type { %"struct.std::_Vector_base<OpenColorIO_v2_4dev::FormatMetadataImpl, std::allocator<OpenColorIO_v2_4dev::FormatMetadataImpl>>::_Vector_impl_data" }
%"struct.std::_Vector_base<OpenColorIO_v2_4dev::FormatMetadataImpl, std::allocator<OpenColorIO_v2_4dev::FormatMetadataImpl>>::_Vector_impl_data" = type { ptr, ptr, ptr }

; Function Attrs: mustprogress nounwind uwtable
define linkonce_odr hidden noundef zeroext i1 @_ZN19OpenColorIO_v2_4dev17EqualWithAbsErrorIdEEbT_S1_S1_(double noundef %x1, double noundef %x2, double noundef %e) #5 comdat {
entry:
  %x1.addr = alloca double, align 8
  %x2.addr = alloca double, align 8
  %e.addr = alloca double, align 8
  store double %x1, ptr %x1.addr, align 8
  store double %x2, ptr %x2.addr, align 8
  store double %e, ptr %e.addr, align 8
  %0 = load double, ptr %x1.addr, align 8
  %1 = load double, ptr %x2.addr, align 8
  %cmp = fcmp ogt double %0, %1
  br i1 %cmp, label %cond.true, label %cond.false

cond.true:                                        ; preds = %entry
  %2 = load double, ptr %x1.addr, align 8
  %3 = load double, ptr %x2.addr, align 8
  %sub = fsub double %2, %3
  br label %cond.end

cond.false:                                       ; preds = %entry
  %4 = load double, ptr %x2.addr, align 8
  %5 = load double, ptr %x1.addr, align 8
  %sub1 = fsub double %4, %5
  br label %cond.end

cond.end:                                         ; preds = %cond.false, %cond.true
  %cond = phi double [ %sub, %cond.true ], [ %sub1, %cond.false ]
  %6 = load double, ptr %e.addr, align 8
  %cmp2 = fcmp ole double %cond, %6
  ret i1 %cmp2
}

; Function Attrs: mustprogress uwtable
define linkonce_odr hidden noundef zeroext i1 @_ZNK19OpenColorIO_v2_4dev9CDLOpData13ChannelParamseqERKS1_(ptr noundef nonnull align 8 dereferenceable(24) %this, ptr noundef nonnull align 8 dereferenceable(24) %other) #4 comdat align 2 {
entry:
  %this.addr = alloca ptr, align 8
  %other.addr = alloca ptr, align 8
  store ptr %this, ptr %this.addr, align 8
  store ptr %other, ptr %other.addr, align 8
  %this1 = load ptr, ptr %this.addr, align 8
  %m_data = getelementptr inbounds %"struct.OpenColorIO_v2_4dev::CDLOpData::ChannelParams", ptr %this1, i32 0, i32 0
  %arrayidx = getelementptr inbounds [3 x double], ptr %m_data, i64 0, i64 0
  %0 = load double, ptr %arrayidx, align 8
  %1 = load ptr, ptr %other.addr, align 8
  %m_data2 = getelementptr inbounds %"struct.OpenColorIO_v2_4dev::CDLOpData::ChannelParams", ptr %1, i32 0, i32 0
  %arrayidx3 = getelementptr inbounds [3 x double], ptr %m_data2, i64 0, i64 0
  %2 = load double, ptr %arrayidx3, align 8
  %call = call noundef zeroext i1 @_ZN19OpenColorIO_v2_4dev17EqualWithAbsErrorIdEEbT_S1_S1_(double noundef %0, double noundef %2, double noundef 1.000000e-09)
  br i1 %call, label %land.lhs.true, label %land.end

land.lhs.true:                                    ; preds = %entry
  %m_data4 = getelementptr inbounds %"struct.OpenColorIO_v2_4dev::CDLOpData::ChannelParams", ptr %this1, i32 0, i32 0
  %arrayidx5 = getelementptr inbounds [3 x double], ptr %m_data4, i64 0, i64 1
  %3 = load double, ptr %arrayidx5, align 8
  %4 = load ptr, ptr %other.addr, align 8
  %m_data6 = getelementptr inbounds %"struct.OpenColorIO_v2_4dev::CDLOpData::ChannelParams", ptr %4, i32 0, i32 0
  %arrayidx7 = getelementptr inbounds [3 x double], ptr %m_data6, i64 0, i64 1
  %5 = load double, ptr %arrayidx7, align 8
  %call8 = call noundef zeroext i1 @_ZN19OpenColorIO_v2_4dev17EqualWithAbsErrorIdEEbT_S1_S1_(double noundef %3, double noundef %5, double noundef 1.000000e-09)
  br i1 %call8, label %land.rhs, label %land.end

land.rhs:                                         ; preds = %land.lhs.true
  %m_data9 = getelementptr inbounds %"struct.OpenColorIO_v2_4dev::CDLOpData::ChannelParams", ptr %this1, i32 0, i32 0
  %arrayidx10 = getelementptr inbounds [3 x double], ptr %m_data9, i64 0, i64 2
  %6 = load double, ptr %arrayidx10, align 8
  %7 = load ptr, ptr %other.addr, align 8
  %m_data11 = getelementptr inbounds %"struct.OpenColorIO_v2_4dev::CDLOpData::ChannelParams", ptr %7, i32 0, i32 0
  %arrayidx12 = getelementptr inbounds [3 x double], ptr %m_data11, i64 0, i64 2
  %8 = load double, ptr %arrayidx12, align 8
  %call13 = call noundef zeroext i1 @_ZN19OpenColorIO_v2_4dev17EqualWithAbsErrorIdEEbT_S1_S1_(double noundef %6, double noundef %8, double noundef 1.000000e-09)
  br label %land.end

land.end:                                         ; preds = %land.rhs, %land.lhs.true, %entry
  %9 = phi i1 [ false, %land.lhs.true ], [ false, %entry ], [ %call13, %land.rhs ]
  ret i1 %9
}

; Function Attrs: mustprogress uwtable
define hidden noundef zeroext i1 @_ZNK19OpenColorIO_v2_4dev9CDLOpData6equalsERKNS_6OpDataE(ptr noundef nonnull align 8 dereferenceable(256) %this, ptr noundef nonnull align 8 dereferenceable(168) %other) unnamed_addr #4 align 2 {
entry:
  %retval = alloca i1, align 1
  %this.addr = alloca ptr, align 8
  %other.addr = alloca ptr, align 8
  %cdl = alloca ptr, align 8
  store ptr %this, ptr %this.addr, align 8
  store ptr %other, ptr %other.addr, align 8
  %this1 = load ptr, ptr %this.addr, align 8
  %0 = load ptr, ptr %other.addr, align 8
  %call = call noundef zeroext i1 @_ZNK19OpenColorIO_v2_4dev6OpData6equalsERKS0_(ptr noundef nonnull align 8 dereferenceable(168) %this1, ptr noundef nonnull align 8 dereferenceable(168) %0)
  br i1 %call, label %if.end, label %if.then

if.then:                                          ; preds = %entry
  store i1 false, ptr %retval, align 1
  br label %return

if.end:                                           ; preds = %entry
  %1 = load ptr, ptr %other.addr, align 8
  store ptr %1, ptr %cdl, align 8
  %m_style = getelementptr inbounds %"class.OpenColorIO_v2_4dev::CDLOpData", ptr %this1, i32 0, i32 1
  %2 = load i32, ptr %m_style, align 8
  %3 = load ptr, ptr %cdl, align 8
  %m_style2 = getelementptr inbounds %"class.OpenColorIO_v2_4dev::CDLOpData", ptr %3, i32 0, i32 1
  %4 = load i32, ptr %m_style2, align 8
  %cmp = icmp eq i32 %2, %4
  br i1 %cmp, label %land.lhs.true, label %land.end

land.lhs.true:                                    ; preds = %if.end
  %m_slopeParams = getelementptr inbounds %"class.OpenColorIO_v2_4dev::CDLOpData", ptr %this1, i32 0, i32 2
  %5 = load ptr, ptr %cdl, align 8
  %m_slopeParams3 = getelementptr inbounds %"class.OpenColorIO_v2_4dev::CDLOpData", ptr %5, i32 0, i32 2
  %call4 = call noundef zeroext i1 @_ZNK19OpenColorIO_v2_4dev9CDLOpData13ChannelParamseqERKS1_(ptr noundef nonnull align 8 dereferenceable(24) %m_slopeParams, ptr noundef nonnull align 8 dereferenceable(24) %m_slopeParams3)
  br i1 %call4, label %land.lhs.true5, label %land.end

land.lhs.true5:                                   ; preds = %land.lhs.true
  %m_offsetParams = getelementptr inbounds %"class.OpenColorIO_v2_4dev::CDLOpData", ptr %this1, i32 0, i32 3
  %6 = load ptr, ptr %cdl, align 8
  %m_offsetParams6 = getelementptr inbounds %"class.OpenColorIO_v2_4dev::CDLOpData", ptr %6, i32 0, i32 3
  %call7 = call noundef zeroext i1 @_ZNK19OpenColorIO_v2_4dev9CDLOpData13ChannelParamseqERKS1_(ptr noundef nonnull align 8 dereferenceable(24) %m_offsetParams, ptr noundef nonnull align 8 dereferenceable(24) %m_offsetParams6)
  br i1 %call7, label %land.lhs.true8, label %land.end

land.lhs.true8:                                   ; preds = %land.lhs.true5
  %m_powerParams = getelementptr inbounds %"class.OpenColorIO_v2_4dev::CDLOpData", ptr %this1, i32 0, i32 4
  %7 = load ptr, ptr %cdl, align 8
  %m_powerParams9 = getelementptr inbounds %"class.OpenColorIO_v2_4dev::CDLOpData", ptr %7, i32 0, i32 4
  %call10 = call noundef zeroext i1 @_ZNK19OpenColorIO_v2_4dev9CDLOpData13ChannelParamseqERKS1_(ptr noundef nonnull align 8 dereferenceable(24) %m_powerParams, ptr noundef nonnull align 8 dereferenceable(24) %m_powerParams9)
  br i1 %call10, label %land.rhs, label %land.end

land.rhs:                                         ; preds = %land.lhs.true8
  %m_saturation = getelementptr inbounds %"class.OpenColorIO_v2_4dev::CDLOpData", ptr %this1, i32 0, i32 5
  %8 = load double, ptr %m_saturation, align 8
  %9 = load ptr, ptr %cdl, align 8
  %m_saturation11 = getelementptr inbounds %"class.OpenColorIO_v2_4dev::CDLOpData", ptr %9, i32 0, i32 5
  %10 = load double, ptr %m_saturation11, align 8
  %cmp12 = fcmp oeq double %8, %10
  br label %land.end

land.end:                                         ; preds = %land.rhs, %land.lhs.true8, %land.lhs.true5, %land.lhs.true, %if.end
  %11 = phi i1 [ false, %land.lhs.true8 ], [ false, %land.lhs.true5 ], [ false, %land.lhs.true ], [ false, %if.end ], [ %cmp12, %land.rhs ]
  store i1 %11, ptr %retval, align 1
  br label %return

return:                                           ; preds = %land.end, %if.then
  %12 = load i1, ptr %retval, align 1
  ret i1 %12
}