; Function Attrs: mustprogress uwtable
define hidden noundef zeroext i1 @_ZNK19OpenColorIO_v2_4dev9CDLOpData6equalsERKNS_6OpDataE(ptr noundef nonnull align 8 dereferenceable(256) %this, ptr noundef nonnull align 8 dereferenceable(168) %other) unnamed_addr #3 align 2 {
entry:
  %call = tail call noundef zeroext i1 @_ZNK19OpenColorIO_v2_4dev6OpData6equalsERKS0_(ptr noundef nonnull align 8 dereferenceable(168) %this, ptr noundef nonnull align 8 dereferenceable(168) %other)
  br i1 %call, label %if.end, label %return

if.end:                                           ; preds = %entry
  %m_style = getelementptr inbounds i8, ptr %this, i64 168
  %0 = load i32, ptr %m_style, align 8
  %m_style2 = getelementptr inbounds i8, ptr %other, i64 168
  %1 = load i32, ptr %m_style2, align 8
  %cmp = icmp eq i32 %0, %1
  br i1 %cmp, label %land.lhs.true, label %return

land.lhs.true:                                    ; preds = %if.end
  %m_slopeParams = getelementptr inbounds i8, ptr %this, i64 176
  %m_slopeParams3 = getelementptr inbounds i8, ptr %other, i64 176
  %2 = load double, ptr %m_slopeParams, align 8
  %3 = load double, ptr %m_slopeParams3, align 8
  %cmp.i.i = fcmp ogt double %2, %3
  %sub.i.i = fsub double %2, %3
  %sub1.i.i = fsub double %3, %2
  %cond.i.i = select i1 %cmp.i.i, double %sub.i.i, double %sub1.i.i
  %cmp2.i.i = fcmp ugt double %cond.i.i, 1.000000e-09
  br i1 %cmp2.i.i, label %return, label %land.lhs.true.i

land.lhs.true.i:                                  ; preds = %land.lhs.true
  %arrayidx5.i = getelementptr inbounds i8, ptr %this, i64 184
  %4 = load double, ptr %arrayidx5.i, align 8
  %arrayidx7.i = getelementptr inbounds i8, ptr %other, i64 184
  %5 = load double, ptr %arrayidx7.i, align 8
  %cmp.i3.i = fcmp ogt double %4, %5
  %sub.i4.i = fsub double %4, %5
  %sub1.i5.i = fsub double %5, %4
  %cond.i6.i = select i1 %cmp.i3.i, double %sub.i4.i, double %sub1.i5.i
  %cmp2.i7.i = fcmp ugt double %cond.i6.i, 1.000000e-09
  br i1 %cmp2.i7.i, label %return, label %_ZNK19OpenColorIO_v2_4dev9CDLOpData13ChannelParamseqERKS1_.exit

_ZNK19OpenColorIO_v2_4dev9CDLOpData13ChannelParamseqERKS1_.exit: ; preds = %land.lhs.true.i
  %arrayidx10.i = getelementptr inbounds i8, ptr %this, i64 192
  %6 = load double, ptr %arrayidx10.i, align 8
  %arrayidx12.i = getelementptr inbounds i8, ptr %other, i64 192
  %7 = load double, ptr %arrayidx12.i, align 8
  %cmp.i8.i = fcmp ogt double %6, %7
  %sub.i9.i = fsub double %6, %7
  %sub1.i10.i = fsub double %7, %6
  %cond.i11.i = select i1 %cmp.i8.i, double %sub.i9.i, double %sub1.i10.i
  %cmp2.i12.i = fcmp ugt double %cond.i11.i, 1.000000e-09
  br i1 %cmp2.i12.i, label %return, label %land.lhs.true5

land.lhs.true5:                                   ; preds = %_ZNK19OpenColorIO_v2_4dev9CDLOpData13ChannelParamseqERKS1_.exit
  %m_offsetParams = getelementptr inbounds i8, ptr %this, i64 200
  %m_offsetParams6 = getelementptr inbounds i8, ptr %other, i64 200
  %8 = load double, ptr %m_offsetParams, align 8
  %9 = load double, ptr %m_offsetParams6, align 8
  %cmp.i.i6 = fcmp ogt double %8, %9
  %sub.i.i7 = fsub double %8, %9
  %sub1.i.i8 = fsub double %9, %8
  %cond.i.i9 = select i1 %cmp.i.i6, double %sub.i.i7, double %sub1.i.i8
  %cmp2.i.i10 = fcmp ugt double %cond.i.i9, 1.000000e-09
  br i1 %cmp2.i.i10, label %return, label %land.lhs.true.i11

land.lhs.true.i11:                                ; preds = %land.lhs.true5
  %arrayidx5.i12 = getelementptr inbounds i8, ptr %this, i64 208
  %10 = load double, ptr %arrayidx5.i12, align 8
  %arrayidx7.i13 = getelementptr inbounds i8, ptr %other, i64 208
  %11 = load double, ptr %arrayidx7.i13, align 8
  %cmp.i3.i14 = fcmp ogt double %10, %11
  %sub.i4.i15 = fsub double %10, %11
  %sub1.i5.i16 = fsub double %11, %10
  %cond.i6.i17 = select i1 %cmp.i3.i14, double %sub.i4.i15, double %sub1.i5.i16
  %cmp2.i7.i18 = fcmp ugt double %cond.i6.i17, 1.000000e-09
  br i1 %cmp2.i7.i18, label %return, label %_ZNK19OpenColorIO_v2_4dev9CDLOpData13ChannelParamseqERKS1_.exit27

_ZNK19OpenColorIO_v2_4dev9CDLOpData13ChannelParamseqERKS1_.exit27: ; preds = %land.lhs.true.i11
  %arrayidx10.i20 = getelementptr inbounds i8, ptr %this, i64 216
  %12 = load double, ptr %arrayidx10.i20, align 8
  %arrayidx12.i21 = getelementptr inbounds i8, ptr %other, i64 216
  %13 = load double, ptr %arrayidx12.i21, align 8
  %cmp.i8.i22 = fcmp ogt double %12, %13
  %sub.i9.i23 = fsub double %12, %13
  %sub1.i10.i24 = fsub double %13, %12
  %cond.i11.i25 = select i1 %cmp.i8.i22, double %sub.i9.i23, double %sub1.i10.i24
  %cmp2.i12.i26 = fcmp ugt double %cond.i11.i25, 1.000000e-09
  br i1 %cmp2.i12.i26, label %return, label %land.lhs.true8

land.lhs.true8:                                   ; preds = %_ZNK19OpenColorIO_v2_4dev9CDLOpData13ChannelParamseqERKS1_.exit27
  %m_powerParams = getelementptr inbounds i8, ptr %this, i64 224
  %m_powerParams9 = getelementptr inbounds i8, ptr %other, i64 224
  %14 = load double, ptr %m_powerParams, align 8
  %15 = load double, ptr %m_powerParams9, align 8
  %cmp.i.i28 = fcmp ogt double %14, %15
  %sub.i.i29 = fsub double %14, %15
  %sub1.i.i30 = fsub double %15, %14
  %cond.i.i31 = select i1 %cmp.i.i28, double %sub.i.i29, double %sub1.i.i30
  %cmp2.i.i32 = fcmp ugt double %cond.i.i31, 1.000000e-09
  br i1 %cmp2.i.i32, label %return, label %land.lhs.true.i33

land.lhs.true.i33:                                ; preds = %land.lhs.true8
  %arrayidx5.i34 = getelementptr inbounds i8, ptr %this, i64 232
  %16 = load double, ptr %arrayidx5.i34, align 8
  %arrayidx7.i35 = getelementptr inbounds i8, ptr %other, i64 232
  %17 = load double, ptr %arrayidx7.i35, align 8
  %cmp.i3.i36 = fcmp ogt double %16, %17
  %sub.i4.i37 = fsub double %16, %17
  %sub1.i5.i38 = fsub double %17, %16
  %cond.i6.i39 = select i1 %cmp.i3.i36, double %sub.i4.i37, double %sub1.i5.i38
  %cmp2.i7.i40 = fcmp ugt double %cond.i6.i39, 1.000000e-09
  br i1 %cmp2.i7.i40, label %return, label %_ZNK19OpenColorIO_v2_4dev9CDLOpData13ChannelParamseqERKS1_.exit49

_ZNK19OpenColorIO_v2_4dev9CDLOpData13ChannelParamseqERKS1_.exit49: ; preds = %land.lhs.true.i33
  %arrayidx10.i42 = getelementptr inbounds i8, ptr %this, i64 240
  %18 = load double, ptr %arrayidx10.i42, align 8
  %arrayidx12.i43 = getelementptr inbounds i8, ptr %other, i64 240
  %19 = load double, ptr %arrayidx12.i43, align 8
  %cmp.i8.i44 = fcmp ogt double %18, %19
  %sub.i9.i45 = fsub double %18, %19
  %sub1.i10.i46 = fsub double %19, %18
  %cond.i11.i47 = select i1 %cmp.i8.i44, double %sub.i9.i45, double %sub1.i10.i46
  %cmp2.i12.i48 = fcmp ugt double %cond.i11.i47, 1.000000e-09
  br i1 %cmp2.i12.i48, label %return, label %land.rhs

land.rhs:                                         ; preds = %_ZNK19OpenColorIO_v2_4dev9CDLOpData13ChannelParamseqERKS1_.exit49
  %m_saturation = getelementptr inbounds i8, ptr %this, i64 248
  %20 = load double, ptr %m_saturation, align 8
  %m_saturation11 = getelementptr inbounds i8, ptr %other, i64 248
  %21 = load double, ptr %m_saturation11, align 8
  %cmp12 = fcmp oeq double %20, %21
  br label %return

return:                                           ; preds = %land.lhs.true8, %land.lhs.true.i33, %land.lhs.true5, %land.lhs.true.i11, %land.lhs.true, %land.lhs.true.i, %if.end, %_ZNK19OpenColorIO_v2_4dev9CDLOpData13ChannelParamseqERKS1_.exit, %_ZNK19OpenColorIO_v2_4dev9CDLOpData13ChannelParamseqERKS1_.exit27, %_ZNK19OpenColorIO_v2_4dev9CDLOpData13ChannelParamseqERKS1_.exit49, %land.rhs, %entry
  %retval.0 = phi i1 [ false, %entry ], [ false, %_ZNK19OpenColorIO_v2_4dev9CDLOpData13ChannelParamseqERKS1_.exit49 ], [ false, %_ZNK19OpenColorIO_v2_4dev9CDLOpData13ChannelParamseqERKS1_.exit27 ], [ false, %_ZNK19OpenColorIO_v2_4dev9CDLOpData13ChannelParamseqERKS1_.exit ], [ false, %if.end ], [ %cmp12, %land.rhs ], [ false, %land.lhs.true.i ], [ false, %land.lhs.true ], [ false, %land.lhs.true.i11 ], [ false, %land.lhs.true5 ], [ false, %land.lhs.true.i33 ], [ false, %land.lhs.true8 ]
  ret i1 %retval.0
}